target datalayout = "e-m:e-p270:32:32-p271:32:32-p272:64:64-i64:64-i128:128-f80:128-n8:16:32:64-S128"
target triple = "x86_64-unknown-linux-gnu"

%"class.std::__cxx11::basic_string" = type { %"struct.std::__cxx11::basic_string<char>::_Alloc_hider", i64, %union.anon }
%"struct.std::__cxx11::basic_string<char>::_Alloc_hider" = type { ptr }
%union.anon = type { i64, [8 x i8] }
%"class.std::error_code" = type { i32, ptr }
%"class.llvh::sys::fs::basic_file_status" = type { i64, i64, i32, i32, i64, i32, i32 }
%"class.llvh::sys::fs::directory_entry" = type { %"class.std::__cxx11::basic_string", i32, i8, %"class.llvh::sys::fs::basic_file_status" }
%"struct.llvh::sys::fs::detail::DirIterState" = type { i64, %"class.llvh::sys::fs::directory_entry" }

; Function Attrs: mustprogress nounwind uwtable
define linkonce_odr hidden void @_ZN4llvh3sys2fs17basic_file_statusC2Ev(ptr noundef nonnull align 8 dereferenceable(40) %this) unnamed_addr #0 comdat align 2 {
entry:
  %this.addr = alloca ptr, align 8
  store ptr %this, ptr %this.addr, align 8
  %this1 = load ptr, ptr %this.addr, align 8
  %fs_st_atime = getelementptr inbounds %"class.llvh::sys::fs::basic_file_status", ptr %this1, i32 0, i32 0
  store i64 0, ptr %fs_st_atime, align 8
  %fs_st_mtime = getelementptr inbounds %"class.llvh::sys::fs::basic_file_status", ptr %this1, i32 0, i32 1
  store i64 0, ptr %fs_st_mtime, align 8
  %fs_st_uid = getelementptr inbounds %"class.llvh::sys::fs::basic_file_status", ptr %this1, i32 0, i32 2
  store i32 0, ptr %fs_st_uid, align 8
  %fs_st_gid = getelementptr inbounds %"class.llvh::sys::fs::basic_file_status", ptr %this1, i32 0, i32 3
  store i32 0, ptr %fs_st_gid, align 4
  %fs_st_size = getelementptr inbounds %"class.llvh::sys::fs::basic_file_status", ptr %this1, i32 0, i32 4
  store i64 0, ptr %fs_st_size, align 8
  %Type = getelementptr inbounds %"class.llvh::sys::fs::basic_file_status", ptr %this1, i32 0, i32 5
  store i32 0, ptr %Type, align 8
  %Perms = getelementptr inbounds %"class.llvh::sys::fs::basic_file_status", ptr %this1, i32 0, i32 6
  store i32 65535, ptr %Perms, align 4
  ret void
}

; Function Attrs: mustprogress nounwind uwtable
define linkonce_odr void @_ZNSt10error_codeC2Ev(ptr noundef nonnull align 8 dereferenceable(16) %this) unnamed_addr #0 comdat align 2 {
entry:
  %this.addr = alloca ptr, align 8
  store ptr %this, ptr %this.addr, align 8
  %this1 = load ptr, ptr %this.addr, align 8
  %_M_value = getelementptr inbounds %"class.std::error_code", ptr %this1, i32 0, i32 0
  store i32 0, ptr %_M_value, align 8
  %_M_cat = getelementptr inbounds %"class.std::error_code", ptr %this1, i32 0, i32 1
  %call = call noundef nonnull align 8 dereferenceable(8) ptr @_ZNSt3_V215system_categoryEv() #13
  store ptr %call, ptr %_M_cat, align 8
  ret void
}

; Function Attrs: mustprogress nounwind uwtable
define linkonce_odr hidden void @_ZN4llvh3sys2fs15directory_entryD2Ev(ptr noundef nonnull align 8 dereferenceable(80) %this) unnamed_addr #0 comdat align 2 {
entry:
  %this.addr = alloca ptr, align 8
  store ptr %this, ptr %this.addr, align 8
  %this1 = load ptr, ptr %this.addr, align 8
  %Path = getelementptr inbounds %"class.llvh::sys::fs::directory_entry", ptr %this1, i32 0, i32 0
  call void @_ZNSt7__cxx1112basic_stringIcSt11char_traitsIcESaIcEED1Ev(ptr noundef nonnull align 8 dereferenceable(32) %Path) #9
  ret void
}

; Function Attrs: mustprogress nounwind uwtable
define linkonce_odr hidden noundef nonnull align 8 dereferenceable(80) ptr @_ZN4llvh3sys2fs15directory_entryaSEOS2_(ptr noundef nonnull align 8 dereferenceable(80) %this, ptr noundef nonnull align 8 dereferenceable(80) %0) #0 comdat align 2 {
entry:
  %this.addr = alloca ptr, align 8
  %.addr = alloca ptr, align 8
  store ptr %this, ptr %this.addr, align 8
  store ptr %0, ptr %.addr, align 8
  %this1 = load ptr, ptr %this.addr, align 8
  %Path = getelementptr inbounds %"class.llvh::sys::fs::directory_entry", ptr %this1, i32 0, i32 0
  %1 = load ptr, ptr %.addr, align 8
  %Path2 = getelementptr inbounds %"class.llvh::sys::fs::directory_entry", ptr %1, i32 0, i32 0
  %call = call noundef nonnull align 8 dereferenceable(32) ptr @_ZNSt7__cxx1112basic_stringIcSt11char_traitsIcESaIcEEaSEOS4_(ptr noundef nonnull align 8 dereferenceable(32) %Path, ptr noundef nonnull align 8 dereferenceable(32) %Path2) #9
  %Type = getelementptr inbounds %"class.llvh::sys::fs::directory_entry", ptr %this1, i32 0, i32 1
  %2 = load ptr, ptr %.addr, align 8
  %Type3 = getelementptr inbounds %"class.llvh::sys::fs::directory_entry", ptr %2, i32 0, i32 1
  call void @llvm.memcpy.p0.p0.i64(ptr align 8 %Type, ptr align 8 %Type3, i64 48, i1 false)
  ret ptr %this1
}

; Function Attrs: mustprogress nounwind uwtable
define linkonce_odr hidden void @_ZN4llvh3sys2fs15directory_entryC2Ev(ptr noundef nonnull align 8 dereferenceable(80) %this) unnamed_addr #0 comdat align 2 {
entry:
  %this.addr = alloca ptr, align 8
  store ptr %this, ptr %this.addr, align 8
  %this1 = load ptr, ptr %this.addr, align 8
  %Path = getelementptr inbounds %"class.llvh::sys::fs::directory_entry", ptr %this1, i32 0, i32 0
  call void @_ZNSt7__cxx1112basic_stringIcSt11char_traitsIcESaIcEEC1Ev(ptr noundef nonnull align 8 dereferenceable(32) %Path) #9
  %Status = getelementptr inbounds %"class.llvh::sys::fs::directory_entry", ptr %this1, i32 0, i32 3
  call void @_ZN4llvh3sys2fs17basic_file_statusC2Ev(ptr noundef nonnull align 8 dereferenceable(40) %Status) #9
  ret void
}

; Function Attrs: mustprogress nounwind uwtable
define hidden { i32, ptr } @_ZN4llvh3sys2fs6detail27directory_iterator_destructERNS2_12DirIterStateE(ptr noundef nonnull align 8 dereferenceable(88) %it) #0 {
entry:
  %retval = alloca %"class.std::error_code", align 8
  %it.addr = alloca ptr, align 8
  %ref.tmp = alloca %"class.llvh::sys::fs::directory_entry", align 8
  store ptr %it, ptr %it.addr, align 8
  %0 = load ptr, ptr %it.addr, align 8
  %IterationHandle = getelementptr inbounds %"struct.llvh::sys::fs::detail::DirIterState", ptr %0, i32 0, i32 0
  %1 = load i64, ptr %IterationHandle, align 8
  %tobool = icmp ne i64 %1, 0
  br i1 %tobool, label %if.then, label %if.end

if.then:                                          ; preds = %entry
  %2 = load ptr, ptr %it.addr, align 8
  %IterationHandle1 = getelementptr inbounds %"struct.llvh::sys::fs::detail::DirIterState", ptr %2, i32 0, i32 0
  %3 = load i64, ptr %IterationHandle1, align 8
  %4 = inttoptr i64 %3 to ptr
  %call = call i32 @closedir(ptr noundef %4)
  br label %if.end

if.end:                                           ; preds = %if.then, %entry
  %5 = load ptr, ptr %it.addr, align 8
  %IterationHandle2 = getelementptr inbounds %"struct.llvh::sys::fs::detail::DirIterState", ptr %5, i32 0, i32 0
  store i64 0, ptr %IterationHandle2, align 8
  call void @llvm.memset.p0.i64(ptr align 8 %ref.tmp, i8 0, i64 80, i1 false)
  call void @_ZN4llvh3sys2fs15directory_entryC2Ev(ptr noundef nonnull align 8 dereferenceable(80) %ref.tmp) #9
  %6 = load ptr, ptr %it.addr, align 8
  %CurrentEntry = getelementptr inbounds %"struct.llvh::sys::fs::detail::DirIterState", ptr %6, i32 0, i32 1
  %call3 = call noundef nonnull align 8 dereferenceable(80) ptr @_ZN4llvh3sys2fs15directory_entryaSEOS2_(ptr noundef nonnull align 8 dereferenceable(80) %CurrentEntry, ptr noundef nonnull align 8 dereferenceable(80) %ref.tmp) #9
  call void @_ZN4llvh3sys2fs15directory_entryD2Ev(ptr noundef nonnull align 8 dereferenceable(80) %ref.tmp) #9
  call void @_ZNSt10error_codeC2Ev(ptr noundef nonnull align 8 dereferenceable(16) %retval) #9
  %7 = load { i32, ptr }, ptr %retval, align 8
  ret { i32, ptr } %7
}