; Function Attrs: mustprogress nounwind uwtable
define hidden { i32, ptr } @_ZN4llvh3sys2fs6detail27directory_iterator_destructERNS2_12DirIterStateE(ptr noundef nonnull align 8 dereferenceable(88) %it) local_unnamed_addr #0 {
entry:
  %ref.tmp = alloca %"class.llvh::sys::fs::directory_entry", align 8
  %0 = load i64, ptr %it, align 8
  %tobool.not = icmp eq i64 %0, 0
  br i1 %tobool.not, label %if.end, label %if.then

if.then:                                          ; preds = %entry
  %1 = inttoptr i64 %0 to ptr
  %call = tail call i32 @closedir(ptr noundef nonnull %1)
  br label %if.end

if.end:                                           ; preds = %if.then, %entry
  store i64 0, ptr %it, align 8
  call void @llvm.memset.p0.i64(ptr noundef nonnull align 8 dereferenceable(80) %ref.tmp, i8 0, i64 80, i1 false)
  call void @_ZNSt7__cxx1112basic_stringIcSt11char_traitsIcESaIcEEC1Ev(ptr noundef nonnull align 8 dereferenceable(32) %ref.tmp) #29
  %Status.i = getelementptr inbounds i8, ptr %ref.tmp, i64 40
  %Perms.i.i = getelementptr inbounds i8, ptr %ref.tmp, i64 76
  call void @llvm.memset.p0.i64(ptr noundef nonnull align 8 dereferenceable(36) %Status.i, i8 0, i64 36, i1 false)
  store i32 65535, ptr %Perms.i.i, align 4
  %CurrentEntry = getelementptr inbounds i8, ptr %it, i64 8
  %call.i = call noundef nonnull align 8 dereferenceable(32) ptr @_ZNSt7__cxx1112basic_stringIcSt11char_traitsIcESaIcEEaSEOS4_(ptr noundef nonnull align 8 dereferenceable(32) %CurrentEntry, ptr noundef nonnull align 8 dereferenceable(32) %ref.tmp) #29
  %Type.i = getelementptr inbounds i8, ptr %it, i64 40
  %Type3.i = getelementptr inbounds i8, ptr %ref.tmp, i64 32
  call void @llvm.memcpy.p0.p0.i64(ptr noundef nonnull align 8 dereferenceable(48) %Type.i, ptr noundef nonnull align 8 dereferenceable(48) %Type3.i, i64 48, i1 false)
  call void @_ZNSt7__cxx1112basic_stringIcSt11char_traitsIcESaIcEED1Ev(ptr noundef nonnull align 8 dereferenceable(32) %ref.tmp) #29
  %call.i4 = tail call noundef nonnull align 8 dereferenceable(8) ptr @_ZNSt3_V215system_categoryEv() #30
  %.fca.1.insert = insertvalue { i32, ptr } { i32 0, ptr poison }, ptr %call.i4, 1
  ret { i32, ptr } %.fca.1.insert
}